target datalayout = "e-m:e-p270:32:32-p271:32:32-p272:64:64-i64:64-i128:128-f80:128-n8:16:32:64-S128"
target triple = "x86_64-pc-linux-gnu"

%struct.pa_central_s = type { %struct.hpa_central_s }
%struct.hpa_central_s = type { %struct.malloc_mutex_s, ptr, i64, ptr, %struct.hpa_hooks_s }
%struct.malloc_mutex_s = type { %union.anon }
%union.anon = type { %struct.anon }
%struct.anon = type { %struct.mutex_prof_data_t, %struct.atomic_b_t, %union.pthread_mutex_t }
%struct.mutex_prof_data_t = type { %struct.nstime_t, %struct.nstime_t, i64, i64, i32, %struct.atomic_u32_t, i64, ptr, i64 }
%struct.nstime_t = type { i64 }
%struct.atomic_u32_t = type { i32 }
%struct.atomic_b_t = type { i8 }
%union.pthread_mutex_t = type { %struct.__pthread_mutex_s }
%struct.__pthread_mutex_s = type { i32, i32, i32, i32, i32, i16, i16, %struct.__pthread_internal_list }
%struct.__pthread_internal_list = type { ptr, ptr }
%struct.hpa_hooks_s = type { ptr, ptr, ptr, ptr, ptr, ptr, ptr }

; Function Attrs: nounwind uwtable
define hidden zeroext i1 @je_pa_central_init(ptr noundef %0, ptr noundef %1, i1 noundef zeroext %2, ptr noundef %3) #0 {
  %5 = alloca i1, align 1
  %6 = alloca ptr, align 8
  %7 = alloca ptr, align 8
  %8 = alloca i8, align 1
  %9 = alloca ptr, align 8
  %10 = alloca i8, align 1
  %11 = alloca i32, align 4
  store ptr %0, ptr %6, align 8, !tbaa !4
  store ptr %1, ptr %7, align 8, !tbaa !9
  %12 = zext i1 %2 to i8
  store i8 %12, ptr %8, align 1, !tbaa !11
  store ptr %3, ptr %9, align 8, !tbaa !13
  call void @llvm.lifetime.start.p0(i64 1, ptr %10) #6
  %13 = load i8, ptr %8, align 1, !tbaa !11, !range !15, !noundef !16
  %14 = trunc i8 %13 to i1
  br i1 %14, label %15, label %26

15:                                               ; preds = %4
  %16 = load ptr, ptr %6, align 8, !tbaa !4
  %17 = getelementptr inbounds nuw %struct.pa_central_s, ptr %16, i32 0, i32 0
  %18 = load ptr, ptr %7, align 8, !tbaa !9
  %19 = load ptr, ptr %9, align 8, !tbaa !13
  %20 = call zeroext i1 @je_hpa_central_init(ptr noundef %17, ptr noundef %18, ptr noundef %19)
  %21 = zext i1 %20 to i8
  store i8 %21, ptr %10, align 1, !tbaa !11
  %22 = load i8, ptr %10, align 1, !tbaa !11, !range !15, !noundef !16
  %23 = trunc i8 %22 to i1
  br i1 %23, label %24, label %25

24:                                               ; preds = %15
  store i1 true, ptr %5, align 1
  store i32 1, ptr %11, align 4
  br label %27

25:                                               ; preds = %15
  br label %26

26:                                               ; preds = %25, %4
  store i1 false, ptr %5, align 1
  store i32 1, ptr %11, align 4
  br label %27

27:                                               ; preds = %26, %24
  call void @llvm.lifetime.end.p0(i64 1, ptr %10) #6
  %28 = load i1, ptr %5, align 1
  ret i1 %28
}